
build/output.elf:     file format elf32-littlearm


Disassembly of section .init:

00008000 <_start>:
    8000:	ea000065 	b	819c <main>

Disassembly of section .text:

00008004 <frameBufferInit>:
    8004:	e52de004 	push	{lr}		; (str lr, [sp, #-4]!)
    8008:	e3500a01 	cmp	r0, #4096	; 0x1000
    800c:	93510a01 	cmpls	r1, #4096	; 0x1000
    8010:	93520020 	cmpls	r2, #32
    8014:	83a00000 	movhi	r0, #0
    8018:	81a0f00e 	movhi	pc, lr
    801c:	e59f3044 	ldr	r3, [pc, #68]	; 8068 <frameBufferInit+0x64>
    8020:	e5830000 	str	r0, [r3]
    8024:	e5831004 	str	r1, [r3, #4]
    8028:	e5830008 	str	r0, [r3, #8]
    802c:	e583100c 	str	r1, [r3, #12]
    8030:	e5832014 	str	r2, [r3, #20]
    8034:	e1a00003 	mov	r0, r3
    8038:	e2800101 	add	r0, r0, #1073741824	; 0x40000000
    803c:	e3a01001 	mov	r1, #1
    8040:	e52d3004 	push	{r3}		; (str r3, [sp, #-4]!)
    8044:	eb00000a 	bl	8074 <mailboxWrite>
    8048:	e3a00001 	mov	r0, #1
    804c:	eb000013 	bl	80a0 <mailboxRead>
    8050:	e49d3004 	pop	{r3}		; (ldr r3, [sp], #4)
    8054:	e3300000 	teq	r0, #0
    8058:	13a00000 	movne	r0, #0
    805c:	149df004 	popne	{pc}		; (ldrne pc, [sp], #4)
    8060:	e1a00003 	mov	r0, r3
    8064:	e49df004 	pop	{pc}		; (ldr pc, [sp], #4)
    8068:	00009000 	.word	0x00009000

0000806c <getMailBoxBaseAddress>:
    806c:	e59f0064 	ldr	r0, [pc, #100]	; 80d8 <wait2$+0x24>
    8070:	e1a0f00e 	mov	pc, lr

00008074 <mailboxWrite>:
    8074:	e52de004 	push	{lr}		; (str lr, [sp, #-4]!)
    8078:	e1a03000 	mov	r3, r0
    807c:	ebfffffa 	bl	806c <getMailBoxBaseAddress>
    8080:	e351000f 	cmp	r1, #15
    8084:	849df004 	pophi	{pc}		; (ldrhi pc, [sp], #4)

00008088 <wait1$>:
    8088:	e5902018 	ldr	r2, [r0, #24]
    808c:	e3120102 	tst	r2, #-2147483648	; 0x80000000
    8090:	1afffffc 	bne	8088 <wait1$>
    8094:	e0811003 	add	r1, r1, r3
    8098:	e5801020 	str	r1, [r0, #32]
    809c:	e49df004 	pop	{pc}		; (ldr pc, [sp], #4)

000080a0 <mailboxRead>:
    80a0:	e52de004 	push	{lr}		; (str lr, [sp, #-4]!)
    80a4:	e350000f 	cmp	r0, #15
    80a8:	81a0f00e 	movhi	pc, lr
    80ac:	e1a01000 	mov	r1, r0
    80b0:	ebffffed 	bl	806c <getMailBoxBaseAddress>

000080b4 <wait2$>:
    80b4:	e5903018 	ldr	r3, [r0, #24]
    80b8:	e3130101 	tst	r3, #1073741824	; 0x40000000
    80bc:	1afffffc 	bne	80b4 <wait2$>
    80c0:	e5902000 	ldr	r2, [r0]
    80c4:	e202300f 	and	r3, r2, #15
    80c8:	e1330001 	teq	r3, r1
    80cc:	1afffff8 	bne	80b4 <wait2$>
    80d0:	e3c2000f 	bic	r0, r2, #15
    80d4:	e49df004 	pop	{pc}		; (ldr pc, [sp], #4)
    80d8:	2000b880 	.word	0x2000b880

000080dc <GetTimerBase>:
    80dc:	e59f0034 	ldr	r0, [pc, #52]	; 8118 <waitLoop$+0x14>
    80e0:	e1a0f00e 	mov	pc, lr

000080e4 <GetTimeStamp>:
    80e4:	e52de004 	push	{lr}		; (str lr, [sp, #-4]!)
    80e8:	ebfffffb 	bl	80dc <GetTimerBase>
    80ec:	e1c000d4 	ldrd	r0, [r0, #4]
    80f0:	e49df004 	pop	{pc}		; (ldr pc, [sp], #4)

000080f4 <Micros>:
    80f4:	e1a02000 	mov	r2, r0
    80f8:	e52de004 	push	{lr}		; (str lr, [sp, #-4]!)
    80fc:	ebfffff8 	bl	80e4 <GetTimeStamp>
    8100:	e1a03000 	mov	r3, r0

00008104 <waitLoop$>:
    8104:	ebfffff6 	bl	80e4 <GetTimeStamp>
    8108:	e0401003 	sub	r1, r0, r3
    810c:	e1510002 	cmp	r1, r2
    8110:	9afffffb 	bls	8104 <waitLoop$>
    8114:	e49df004 	pop	{pc}		; (ldr pc, [sp], #4)
    8118:	20003000 	.word	0x20003000

0000811c <GetGpioAddress>:
    811c:	e59f0074 	ldr	r0, [pc, #116]	; 8198 <SetGpio+0x3c>
    8120:	e1a0f00e 	mov	pc, lr

00008124 <SetGpioFunction>:
    8124:	e3500035 	cmp	r0, #53	; 0x35
    8128:	93510007 	cmpls	r1, #7
    812c:	81a0f00e 	movhi	pc, lr
    8130:	e52de004 	push	{lr}		; (str lr, [sp, #-4]!)
    8134:	e1a02000 	mov	r2, r0
    8138:	ebfffff7 	bl	811c <GetGpioAddress>

0000813c <functionLoop$>:
    813c:	e3520009 	cmp	r2, #9
    8140:	8242200a 	subhi	r2, r2, #10
    8144:	82800004 	addhi	r0, r0, #4
    8148:	8afffffb 	bhi	813c <functionLoop$>
    814c:	e0822082 	add	r2, r2, r2, lsl #1
    8150:	e1a01211 	lsl	r1, r1, r2
    8154:	e5801000 	str	r1, [r0]
    8158:	e49df004 	pop	{pc}		; (ldr pc, [sp], #4)

0000815c <SetGpio>:
    815c:	e3500035 	cmp	r0, #53	; 0x35
    8160:	81a0f00e 	movhi	pc, lr
    8164:	e52de004 	push	{lr}		; (str lr, [sp, #-4]!)
    8168:	e1a02000 	mov	r2, r0
    816c:	ebffffea 	bl	811c <GetGpioAddress>
    8170:	e1a032a2 	lsr	r3, r2, #5
    8174:	e1a03103 	lsl	r3, r3, #2
    8178:	e0800003 	add	r0, r0, r3
    817c:	e202201f 	and	r2, r2, #31
    8180:	e3a03001 	mov	r3, #1
    8184:	e1a03213 	lsl	r3, r3, r2
    8188:	e3310000 	teq	r1, #0
    818c:	05803028 	streq	r3, [r0, #40]	; 0x28
    8190:	1580301c 	strne	r3, [r0, #28]
    8194:	e49df004 	pop	{pc}		; (ldr pc, [sp], #4)
    8198:	20200000 	.word	0x20200000

0000819c <main>:
    819c:	e3a0d902 	mov	sp, #32768	; 0x8000
    81a0:	e3a00b01 	mov	r0, #1024	; 0x400
    81a4:	e3a01c03 	mov	r1, #768	; 0x300
    81a8:	e3a02010 	mov	r2, #16
    81ac:	ebffff94 	bl	8004 <frameBufferInit>
    81b0:	e3300000 	teq	r0, #0
    81b4:	1a000006 	bne	81d4 <noError$>
    81b8:	e3a0002f 	mov	r0, #47	; 0x2f
    81bc:	e3a01001 	mov	r1, #1
    81c0:	ebffffd7 	bl	8124 <SetGpioFunction>
    81c4:	e3a0002f 	mov	r0, #47	; 0x2f
    81c8:	e3a01000 	mov	r1, #0
    81cc:	ebffffe2 	bl	815c <SetGpio>

000081d0 <error$>:
    81d0:	eafffffe 	b	81d0 <error$>

000081d4 <noError$>:
    81d4:	e1a04000 	mov	r4, r0
    81d8:	e3a00b3e 	mov	r0, #63488	; 0xf800
    81dc:	e5943020 	ldr	r3, [r4, #32]
    81e0:	e3a01c03 	mov	r1, #768	; 0x300

000081e4 <drawRow1$>:
    81e4:	e3a02b01 	mov	r2, #1024	; 0x400

000081e8 <drawPixel1$>:
    81e8:	e1c300b0 	strh	r0, [r3]
    81ec:	e2833002 	add	r3, r3, #2
    81f0:	e2422001 	sub	r2, r2, #1
    81f4:	e3320000 	teq	r2, #0
    81f8:	1afffffa 	bne	81e8 <drawPixel1$>
    81fc:	e2411001 	sub	r1, r1, #1
    8200:	e3310000 	teq	r1, #0
    8204:	1afffff6 	bne	81e4 <drawRow1$>
    8208:	e59f00e0 	ldr	r0, [pc, #224]	; 82f0 <drawPixel6$+0x28>
    820c:	ebffffb8 	bl	80f4 <Micros>
    8210:	e3a00e7e 	mov	r0, #2016	; 0x7e0
    8214:	e5943020 	ldr	r3, [r4, #32]
    8218:	e3a01c03 	mov	r1, #768	; 0x300

0000821c <drawRow2$>:
    821c:	e3a02b01 	mov	r2, #1024	; 0x400

00008220 <drawPixel2$>:
    8220:	e1c300b0 	strh	r0, [r3]
    8224:	e2833002 	add	r3, r3, #2
    8228:	e2422001 	sub	r2, r2, #1
    822c:	e3320000 	teq	r2, #0
    8230:	1afffffa 	bne	8220 <drawPixel2$>
    8234:	e2411001 	sub	r1, r1, #1
    8238:	e3310000 	teq	r1, #0
    823c:	1afffff6 	bne	821c <drawRow2$>
    8240:	e59f00a8 	ldr	r0, [pc, #168]	; 82f0 <drawPixel6$+0x28>
    8244:	ebffffaa 	bl	80f4 <Micros>
    8248:	e3a0001f 	mov	r0, #31
    824c:	e5943020 	ldr	r3, [r4, #32]
    8250:	e3a01c03 	mov	r1, #768	; 0x300

00008254 <drawRow3$>:
    8254:	e3a02b01 	mov	r2, #1024	; 0x400

00008258 <drawPixel3$>:
    8258:	e1c300b0 	strh	r0, [r3]
    825c:	e2833002 	add	r3, r3, #2
    8260:	e2422001 	sub	r2, r2, #1
    8264:	e3320000 	teq	r2, #0
    8268:	1afffffa 	bne	8258 <drawPixel3$>
    826c:	e2411001 	sub	r1, r1, #1
    8270:	e3310000 	teq	r1, #0
    8274:	1afffff6 	bne	8254 <drawRow3$>
    8278:	e59f0070 	ldr	r0, [pc, #112]	; 82f0 <drawPixel6$+0x28>
    827c:	ebffff9c 	bl	80f4 <Micros>
    8280:	e59f006c 	ldr	r0, [pc, #108]	; 82f4 <drawPixel6$+0x2c>
    8284:	e5943020 	ldr	r3, [r4, #32]
    8288:	e3a01c03 	mov	r1, #768	; 0x300

0000828c <drawRow5$>:
    828c:	e3a02b01 	mov	r2, #1024	; 0x400

00008290 <drawPixel5$>:
    8290:	e1c300b0 	strh	r0, [r3]
    8294:	e2833002 	add	r3, r3, #2
    8298:	e2422001 	sub	r2, r2, #1
    829c:	e3320000 	teq	r2, #0
    82a0:	1afffffa 	bne	8290 <drawPixel5$>
    82a4:	e2411001 	sub	r1, r1, #1
    82a8:	e3310000 	teq	r1, #0
    82ac:	1afffff6 	bne	828c <drawRow5$>
    82b0:	e59f0038 	ldr	r0, [pc, #56]	; 82f0 <drawPixel6$+0x28>
    82b4:	ebffff8e 	bl	80f4 <Micros>
    82b8:	e3a00000 	mov	r0, #0
    82bc:	e5943020 	ldr	r3, [r4, #32]
    82c0:	e3a01c03 	mov	r1, #768	; 0x300

000082c4 <drawRow6$>:
    82c4:	e3a02b01 	mov	r2, #1024	; 0x400

000082c8 <drawPixel6$>:
    82c8:	e1c300b0 	strh	r0, [r3]
    82cc:	e2833002 	add	r3, r3, #2
    82d0:	e2422001 	sub	r2, r2, #1
    82d4:	e3320000 	teq	r2, #0
    82d8:	1afffffa 	bne	82c8 <drawPixel6$>
    82dc:	e2411001 	sub	r1, r1, #1
    82e0:	e3310000 	teq	r1, #0
    82e4:	1afffff6 	bne	82c4 <drawRow6$>
    82e8:	e51f0000 	ldr	r0, [pc, #-0]	; 82f0 <drawPixel6$+0x28>
    82ec:	ebffff80 	bl	80f4 <Micros>
    82f0:	001e8480 	.word	0x001e8480
    82f4:	0000ffff 	.word	0x0000ffff
