
build/output.elf:     file format elf32-littlearm


Disassembly of section .init:

00008000 <_start>:
    8000:	ea0000b3 	b	82d4 <main>

Disassembly of section .text:

00008004 <GetMailboxBase>:
    8004:	e59f006c 	ldr	r0, [pc, #108]	; 8078 <rightmail$+0x24>
    8008:	e1a0f00e 	mov	pc, lr

0000800c <MailboxWrite>:
    800c:	e310000f 	tst	r0, #15
    8010:	11a0f00e 	movne	pc, lr
    8014:	e351000f 	cmp	r1, #15
    8018:	81a0f00e 	movhi	pc, lr
    801c:	e1a02000 	mov	r2, r0
    8020:	e52de004 	push	{lr}		; (str lr, [sp, #-4]!)
    8024:	ebfffff6 	bl	8004 <GetMailboxBase>

00008028 <wait1$>:
    8028:	e5903018 	ldr	r3, [r0, #24]
    802c:	e3130102 	tst	r3, #-2147483648	; 0x80000000
    8030:	1afffffc 	bne	8028 <wait1$>
    8034:	e0822001 	add	r2, r2, r1
    8038:	e5802020 	str	r2, [r0, #32]
    803c:	e49df004 	pop	{pc}		; (ldr pc, [sp], #4)

00008040 <MailboxRead>:
    8040:	e350000f 	cmp	r0, #15
    8044:	81a0f00e 	movhi	pc, lr
    8048:	e1a01000 	mov	r1, r0
    804c:	e52de004 	push	{lr}		; (str lr, [sp, #-4]!)
    8050:	ebffffeb 	bl	8004 <GetMailboxBase>

00008054 <rightmail$>:
    8054:	e5902018 	ldr	r2, [r0, #24]
    8058:	e3120101 	tst	r2, #1073741824	; 0x40000000
    805c:	1afffffc 	bne	8054 <rightmail$>
    8060:	e5902000 	ldr	r2, [r0]
    8064:	e202300f 	and	r3, r2, #15
    8068:	e1330001 	teq	r3, r1
    806c:	1afffff8 	bne	8054 <rightmail$>
    8070:	e3c2000f 	bic	r0, r2, #15
    8074:	e49df004 	pop	{pc}		; (ldr pc, [sp], #4)
    8078:	2000b880 	.word	0x2000b880

0000807c <InitialiseFrameBuffer>:
    807c:	e3500a01 	cmp	r0, #4096	; 0x1000
    8080:	93510a01 	cmpls	r1, #4096	; 0x1000
    8084:	93520020 	cmpls	r2, #32
    8088:	83a00000 	movhi	r0, #0
    808c:	81a0f00e 	movhi	pc, lr
    8090:	e92d4010 	push	{r4, lr}
    8094:	e59f403c 	ldr	r4, [pc, #60]	; 80d8 <InitialiseFrameBuffer+0x5c>
    8098:	e5840000 	str	r0, [r4]
    809c:	e5841004 	str	r1, [r4, #4]
    80a0:	e5840008 	str	r0, [r4, #8]
    80a4:	e584100c 	str	r1, [r4, #12]
    80a8:	e5842014 	str	r2, [r4, #20]
    80ac:	e1a00004 	mov	r0, r4
    80b0:	e2800101 	add	r0, r0, #1073741824	; 0x40000000
    80b4:	e3a01001 	mov	r1, #1
    80b8:	ebffffd3 	bl	800c <MailboxWrite>
    80bc:	e3a00001 	mov	r0, #1
    80c0:	ebffffde 	bl	8040 <MailboxRead>
    80c4:	e3300000 	teq	r0, #0
    80c8:	13a00000 	movne	r0, #0
    80cc:	18bd8010 	popne	{r4, pc}
    80d0:	e1a00004 	mov	r0, r4
    80d4:	e8bd8010 	pop	{r4, pc}
    80d8:	00009000 	.word	0x00009000

000080dc <GetTimerBase>:
    80dc:	e59f0034 	ldr	r0, [pc, #52]	; 8118 <waitLoop$+0x14>
    80e0:	e1a0f00e 	mov	pc, lr

000080e4 <GetTimeStamp>:
    80e4:	e52de004 	push	{lr}		; (str lr, [sp, #-4]!)
    80e8:	ebfffffb 	bl	80dc <GetTimerBase>
    80ec:	e1c000d4 	ldrd	r0, [r0, #4]
    80f0:	e49df004 	pop	{pc}		; (ldr pc, [sp], #4)

000080f4 <Micros>:
    80f4:	e1a02000 	mov	r2, r0
    80f8:	e52de004 	push	{lr}		; (str lr, [sp, #-4]!)
    80fc:	ebfffff8 	bl	80e4 <GetTimeStamp>
    8100:	e1a03000 	mov	r3, r0

00008104 <waitLoop$>:
    8104:	ebfffff6 	bl	80e4 <GetTimeStamp>
    8108:	e0401003 	sub	r1, r0, r3
    810c:	e1510002 	cmp	r1, r2
    8110:	9afffffb 	bls	8104 <waitLoop$>
    8114:	e49df004 	pop	{pc}		; (ldr pc, [sp], #4)
    8118:	20003000 	.word	0x20003000

0000811c <SetForeColour>:
    811c:	e3500801 	cmp	r0, #65536	; 0x10000
    8120:	81a0f00e 	movhi	pc, lr
    8124:	01a0f00e 	moveq	pc, lr
    8128:	e59f111c 	ldr	r1, [pc, #284]	; 824c <pixelLoop$+0x34>
    812c:	e1c100b0 	strh	r0, [r1]
    8130:	e1a0f00e 	mov	pc, lr

00008134 <SetGraphicsAddress>:
    8134:	e59f1114 	ldr	r1, [pc, #276]	; 8250 <pixelLoop$+0x38>
    8138:	e5810000 	str	r0, [r1]
    813c:	e1a0f00e 	mov	pc, lr

00008140 <DrawPixel>:
    8140:	e92d0003 	push	{r0, r1}
    8144:	e59f2104 	ldr	r2, [pc, #260]	; 8250 <pixelLoop$+0x38>
    8148:	e5922000 	ldr	r2, [r2]
    814c:	e5923004 	ldr	r3, [r2, #4]
    8150:	e2433001 	sub	r3, r3, #1
    8154:	e1510003 	cmp	r1, r3
    8158:	81a0f00e 	movhi	pc, lr
    815c:	e5923000 	ldr	r3, [r2]
    8160:	e2433001 	sub	r3, r3, #1
    8164:	e1500003 	cmp	r0, r3
    8168:	81a0f00e 	movhi	pc, lr
    816c:	e5922020 	ldr	r2, [r2, #32]
    8170:	e2833001 	add	r3, r3, #1
    8174:	e0200391 	mla	r0, r1, r3, r0
    8178:	e0822080 	add	r2, r2, r0, lsl #1
    817c:	e59f30c8 	ldr	r3, [pc, #200]	; 824c <pixelLoop$+0x34>
    8180:	e1d330b0 	ldrh	r3, [r3]
    8184:	e1c230b0 	strh	r3, [r2]
    8188:	e8bd0003 	pop	{r0, r1}
    818c:	e1a0f00e 	mov	pc, lr

00008190 <FullScreenToForeColour>:
    8190:	e59f40b8 	ldr	r4, [pc, #184]	; 8250 <pixelLoop$+0x38>
    8194:	e5944000 	ldr	r4, [r4]
    8198:	e5944020 	ldr	r4, [r4, #32]
    819c:	e59f00a8 	ldr	r0, [pc, #168]	; 824c <pixelLoop$+0x34>
    81a0:	e5900000 	ldr	r0, [r0]
    81a4:	e3a01c03 	mov	r1, #768	; 0x300

000081a8 <drawRow2$>:
    81a8:	e3a02b01 	mov	r2, #1024	; 0x400

000081ac <drawPixel2$>:
    81ac:	e1c400b0 	strh	r0, [r4]
    81b0:	e2844002 	add	r4, r4, #2
    81b4:	e2422001 	sub	r2, r2, #1
    81b8:	e3320000 	teq	r2, #0
    81bc:	1afffffa 	bne	81ac <drawPixel2$>
    81c0:	e2411001 	sub	r1, r1, #1
    81c4:	e3310000 	teq	r1, #0
    81c8:	1afffff6 	bne	81a8 <drawRow2$>
    81cc:	e1a0f00e 	mov	pc, lr

000081d0 <DrawLine>:
    81d0:	e92d5ff8 	push	{r3, r4, r5, r6, r7, r8, r9, sl, fp, ip, lr}
    81d4:	e1a09000 	mov	r9, r0
    81d8:	e1a0a002 	mov	sl, r2
    81dc:	e1a0b001 	mov	fp, r1
    81e0:	e1a0c003 	mov	ip, r3
    81e4:	e159000a 	cmp	r9, sl
    81e8:	c049400a 	subgt	r4, r9, sl
    81ec:	c3e06000 	mvngt	r6, #0
    81f0:	d04a4009 	suble	r4, sl, r9
    81f4:	d3a06001 	movle	r6, #1
    81f8:	e15b000c 	cmp	fp, ip
    81fc:	c04c500b 	subgt	r5, ip, fp
    8200:	c3e07000 	mvngt	r7, #0
    8204:	d04b500c 	suble	r5, fp, ip
    8208:	d3a07001 	movle	r7, #1
    820c:	e0848005 	add	r8, r4, r5
    8210:	e08aa006 	add	sl, sl, r6
    8214:	e08cc007 	add	ip, ip, r7

00008218 <pixelLoop$>:
    8218:	e139000a 	teq	r9, sl
    821c:	113b000c 	teqne	fp, ip
    8220:	08bd9ff8 	popeq	{r3, r4, r5, r6, r7, r8, r9, sl, fp, ip, pc}
    8224:	e1a00009 	mov	r0, r9
    8228:	e1a0100b 	mov	r1, fp
    822c:	ebffffc3 	bl	8140 <DrawPixel>
    8230:	e1550088 	cmp	r5, r8, lsl #1
    8234:	d0888005 	addle	r8, r8, r5
    8238:	d0899006 	addle	r9, r9, r6
    823c:	e1540088 	cmp	r4, r8, lsl #1
    8240:	a0888004 	addge	r8, r8, r4
    8244:	a08bb007 	addge	fp, fp, r7
    8248:	eafffff2 	b	8218 <pixelLoop$>
    824c:	00009028 	.word	0x00009028
    8250:	0000902c 	.word	0x0000902c

00008254 <GetGpioAddress>:
    8254:	e59f0074 	ldr	r0, [pc, #116]	; 82d0 <SetGpio+0x3c>
    8258:	e1a0f00e 	mov	pc, lr

0000825c <SetGpioFunction>:
    825c:	e3500035 	cmp	r0, #53	; 0x35
    8260:	93510007 	cmpls	r1, #7
    8264:	81a0f00e 	movhi	pc, lr
    8268:	e52de004 	push	{lr}		; (str lr, [sp, #-4]!)
    826c:	e1a02000 	mov	r2, r0
    8270:	ebfffff7 	bl	8254 <GetGpioAddress>

00008274 <functionLoop$>:
    8274:	e3520009 	cmp	r2, #9
    8278:	8242200a 	subhi	r2, r2, #10
    827c:	82800004 	addhi	r0, r0, #4
    8280:	8afffffb 	bhi	8274 <functionLoop$>
    8284:	e0822082 	add	r2, r2, r2, lsl #1
    8288:	e1a01211 	lsl	r1, r1, r2
    828c:	e5801000 	str	r1, [r0]
    8290:	e49df004 	pop	{pc}		; (ldr pc, [sp], #4)

00008294 <SetGpio>:
    8294:	e3500035 	cmp	r0, #53	; 0x35
    8298:	81a0f00e 	movhi	pc, lr
    829c:	e52de004 	push	{lr}		; (str lr, [sp, #-4]!)
    82a0:	e1a02000 	mov	r2, r0
    82a4:	ebffffea 	bl	8254 <GetGpioAddress>
    82a8:	e1a032a2 	lsr	r3, r2, #5
    82ac:	e1a03103 	lsl	r3, r3, #2
    82b0:	e0800003 	add	r0, r0, r3
    82b4:	e202201f 	and	r2, r2, #31
    82b8:	e3a03001 	mov	r3, #1
    82bc:	e1a03213 	lsl	r3, r3, r2
    82c0:	e3310000 	teq	r1, #0
    82c4:	05803028 	streq	r3, [r0, #40]	; 0x28
    82c8:	1580301c 	strne	r3, [r0, #28]
    82cc:	e49df004 	pop	{pc}		; (ldr pc, [sp], #4)
    82d0:	20200000 	.word	0x20200000

000082d4 <main>:
    82d4:	e3a0d902 	mov	sp, #32768	; 0x8000
    82d8:	e3a00b01 	mov	r0, #1024	; 0x400
    82dc:	e3a01c03 	mov	r1, #768	; 0x300
    82e0:	e3a02010 	mov	r2, #16
    82e4:	ebffff64 	bl	807c <InitialiseFrameBuffer>
    82e8:	e3300000 	teq	r0, #0
    82ec:	1a000006 	bne	830c <noError$>
    82f0:	e3a0002f 	mov	r0, #47	; 0x2f
    82f4:	e3a01001 	mov	r1, #1
    82f8:	ebffffd7 	bl	825c <SetGpioFunction>
    82fc:	e3a0002f 	mov	r0, #47	; 0x2f
    8300:	e3a01000 	mov	r1, #0
    8304:	ebffffe2 	bl	8294 <SetGpio>

00008308 <error$>:
    8308:	eafffffe 	b	8308 <error$>

0000830c <noError$>:
    830c:	ebffff88 	bl	8134 <SetGraphicsAddress>
    8310:	e3a00e7e 	mov	r0, #2016	; 0x7e0
    8314:	ebffff80 	bl	811c <SetForeColour>
    8318:	ebffff9c 	bl	8190 <FullScreenToForeColour>
    831c:	e59f01a0 	ldr	r0, [pc, #416]	; 84c4 <drawTillX$+0x178>
    8320:	ebffff73 	bl	80f4 <Micros>
    8324:	e3a00000 	mov	r0, #0
    8328:	ebffff7b 	bl	811c <SetForeColour>
    832c:	ebffff97 	bl	8190 <FullScreenToForeColour>
    8330:	e59f018c 	ldr	r0, [pc, #396]	; 84c4 <drawTillX$+0x178>
    8334:	ebffff6e 	bl	80f4 <Micros>
    8338:	e3a00b3e 	mov	r0, #63488	; 0xf800
    833c:	ebffff76 	bl	811c <SetForeColour>
    8340:	e3a00e19 	mov	r0, #400	; 0x190
    8344:	e3a01e19 	mov	r1, #400	; 0x190
    8348:	e1a08000 	mov	r8, r0

0000834c <drawTillX$>:
    834c:	ebffff7b 	bl	8140 <DrawPixel>
    8350:	e2400001 	sub	r0, r0, #1
    8354:	e3300000 	teq	r0, #0
    8358:	1afffffb 	bne	834c <drawTillX$>
    835c:	e1a00008 	mov	r0, r8
    8360:	e2411001 	sub	r1, r1, #1
    8364:	e3310000 	teq	r1, #0
    8368:	1afffff7 	bne	834c <drawTillX$>
    836c:	e59f0150 	ldr	r0, [pc, #336]	; 84c4 <drawTillX$+0x178>
    8370:	ebffff5f 	bl	80f4 <Micros>
    8374:	e3a00e7e 	mov	r0, #2016	; 0x7e0
    8378:	ebffff67 	bl	811c <SetForeColour>
    837c:	ebffff83 	bl	8190 <FullScreenToForeColour>
    8380:	e59f013c 	ldr	r0, [pc, #316]	; 84c4 <drawTillX$+0x178>
    8384:	ebffff5a 	bl	80f4 <Micros>
    8388:	e3a00000 	mov	r0, #0
    838c:	ebffff62 	bl	811c <SetForeColour>
    8390:	ebffff7e 	bl	8190 <FullScreenToForeColour>
    8394:	e59f0128 	ldr	r0, [pc, #296]	; 84c4 <drawTillX$+0x178>
    8398:	ebffff55 	bl	80f4 <Micros>
    839c:	e3a00b3e 	mov	r0, #63488	; 0xf800
    83a0:	ebffff5d 	bl	811c <SetForeColour>
    83a4:	e3a0000a 	mov	r0, #10
    83a8:	e3a010e6 	mov	r1, #230	; 0xe6
    83ac:	e3a0209c 	mov	r2, #156	; 0x9c
    83b0:	e3a030e6 	mov	r3, #230	; 0xe6
    83b4:	ebffff85 	bl	81d0 <DrawLine>
    83b8:	e3a00053 	mov	r0, #83	; 0x53
    83bc:	e3a010e6 	mov	r1, #230	; 0xe6
    83c0:	e3a02053 	mov	r2, #83	; 0x53
    83c4:	e59f30fc 	ldr	r3, [pc, #252]	; 84c8 <drawTillX$+0x17c>
    83c8:	ebffff80 	bl	81d0 <DrawLine>
    83cc:	e3a000e6 	mov	r0, #230	; 0xe6
    83d0:	e3a010e6 	mov	r1, #230	; 0xe6
    83d4:	e3a02f5e 	mov	r2, #376	; 0x178
    83d8:	e3a030e6 	mov	r3, #230	; 0xe6
    83dc:	ebffff7b 	bl	81d0 <DrawLine>
    83e0:	e3a000e6 	mov	r0, #230	; 0xe6
    83e4:	e3a01f5f 	mov	r1, #380	; 0x17c
    83e8:	e3a02f5e 	mov	r2, #376	; 0x178
    83ec:	e3a03f5f 	mov	r3, #380	; 0x17c
    83f0:	ebffff76 	bl	81d0 <DrawLine>
    83f4:	e3a000e6 	mov	r0, #230	; 0xe6
    83f8:	e3a010e6 	mov	r1, #230	; 0xe6
    83fc:	e3a020e6 	mov	r2, #230	; 0xe6
    8400:	e59f30c0 	ldr	r3, [pc, #192]	; 84c8 <drawTillX$+0x17c>
    8404:	ebffff71 	bl	81d0 <DrawLine>
    8408:	e3a00f5e 	mov	r0, #376	; 0x178
    840c:	e3a010e6 	mov	r1, #230	; 0xe6
    8410:	e3a02f5e 	mov	r2, #376	; 0x178
    8414:	e59f30ac 	ldr	r3, [pc, #172]	; 84c8 <drawTillX$+0x17c>
    8418:	ebffff6c 	bl	81d0 <DrawLine>
    841c:	e59f00a8 	ldr	r0, [pc, #168]	; 84cc <drawTillX$+0x180>
    8420:	e3a010e6 	mov	r1, #230	; 0xe6
    8424:	e59f20a0 	ldr	r2, [pc, #160]	; 84cc <drawTillX$+0x180>
    8428:	e59f3098 	ldr	r3, [pc, #152]	; 84c8 <drawTillX$+0x17c>
    842c:	ebffff67 	bl	81d0 <DrawLine>
    8430:	e3a00f95 	mov	r0, #596	; 0x254
    8434:	e3a010e6 	mov	r1, #230	; 0xe6
    8438:	e3a02f95 	mov	r2, #596	; 0x254
    843c:	e59f3084 	ldr	r3, [pc, #132]	; 84c8 <drawTillX$+0x17c>
    8440:	ebffff62 	bl	81d0 <DrawLine>
    8444:	e59f0080 	ldr	r0, [pc, #128]	; 84cc <drawTillX$+0x180>
    8448:	e3a010e6 	mov	r1, #230	; 0xe6
    844c:	e3a02f95 	mov	r2, #596	; 0x254
    8450:	e59f3070 	ldr	r3, [pc, #112]	; 84c8 <drawTillX$+0x17c>
    8454:	ebffff5d 	bl	81d0 <DrawLine>
    8458:	e59f0070 	ldr	r0, [pc, #112]	; 84d0 <drawTillX$+0x184>
    845c:	e3a010e6 	mov	r1, #230	; 0xe6
    8460:	e59f206c 	ldr	r2, [pc, #108]	; 84d4 <drawTillX$+0x188>
    8464:	e3a030e6 	mov	r3, #230	; 0xe6
    8468:	ebffff58 	bl	81d0 <DrawLine>
    846c:	e59f005c 	ldr	r0, [pc, #92]	; 84d0 <drawTillX$+0x184>
    8470:	e3a010e6 	mov	r1, #230	; 0xe6
    8474:	e59f2054 	ldr	r2, [pc, #84]	; 84d0 <drawTillX$+0x184>
    8478:	e3a03f5f 	mov	r3, #380	; 0x17c
    847c:	ebffff53 	bl	81d0 <DrawLine>
    8480:	e59f0048 	ldr	r0, [pc, #72]	; 84d0 <drawTillX$+0x184>
    8484:	e3a01f5f 	mov	r1, #380	; 0x17c
    8488:	e59f2044 	ldr	r2, [pc, #68]	; 84d4 <drawTillX$+0x188>
    848c:	e3a03f5f 	mov	r3, #380	; 0x17c
    8490:	ebffff4e 	bl	81d0 <DrawLine>
    8494:	e59f0038 	ldr	r0, [pc, #56]	; 84d4 <drawTillX$+0x188>
    8498:	e3a01f5f 	mov	r1, #380	; 0x17c
    849c:	e59f2030 	ldr	r2, [pc, #48]	; 84d4 <drawTillX$+0x188>
    84a0:	e59f3020 	ldr	r3, [pc, #32]	; 84c8 <drawTillX$+0x17c>
    84a4:	ebffff49 	bl	81d0 <DrawLine>
    84a8:	e59f0024 	ldr	r0, [pc, #36]	; 84d4 <drawTillX$+0x188>
    84ac:	e59f1014 	ldr	r1, [pc, #20]	; 84c8 <drawTillX$+0x17c>
    84b0:	e59f2018 	ldr	r2, [pc, #24]	; 84d0 <drawTillX$+0x184>
    84b4:	e59f300c 	ldr	r3, [pc, #12]	; 84c8 <drawTillX$+0x17c>
    84b8:	ebffff44 	bl	81d0 <DrawLine>
    84bc:	e59f0014 	ldr	r0, [pc, #20]	; 84d8 <drawTillX$+0x18c>
    84c0:	ebffff0b 	bl	80f4 <Micros>
    84c4:	001e8480 	.word	0x001e8480
    84c8:	00000212 	.word	0x00000212
    84cc:	000001c2 	.word	0x000001c2
    84d0:	0000029e 	.word	0x0000029e
    84d4:	0000032a 	.word	0x0000032a
    84d8:	004c4b40 	.word	0x004c4b40
